; Function Attrs: mustprogress nofree norecurse nosync nounwind willreturn memory(argmem: read) uwtable
define ptr @Gia_SimDataCiExt(ptr noundef readonly captures(none) %0, i32 noundef %1) local_unnamed_addr #0 {
  %3 = getelementptr i8, ptr %0, i64 16
  %.val = load i32, ptr %3, align 8, !tbaa !3
  %4 = getelementptr i8, ptr %0, i64 48
  %.val1 = load ptr, ptr %4, align 8, !tbaa !14
  %5 = mul nsw i32 %.val, %1
  %6 = sext i32 %5 to i64
  %7 = getelementptr inbounds i32, ptr %.val1, i64 %6
  ret ptr %7
}